ccopy_reg
_reconstructor
p0
(cpandas.core.frame
DataFrame
p1
c__builtin__
object
p2
Ntp3
Rp4
(dp5
S'_metadata'
p6
(lp7
sS'_typ'
p8
S'dataframe'
p9
sS'_data'
p10
g0
(cpandas.core.internals
BlockManager
p11
g2
Ntp12
Rp13
((lp14
cpandas.core.indexes.base
_new_Index
p15
(cpandas.core.indexes.base
Index
p16
(dp17
S'data'
p18
cnumpy.core.multiarray
_reconstruct
p19
(cnumpy
ndarray
p20
(I0
tp21
S'b'
p22
tp23
Rp24
(I1
(I13
tp25
cnumpy
dtype
p26
(S'O8'
p27
I0
I1
tp28
Rp29
(I3
S'|'
p30
NNNI-1
I-1
I63
tp31
bI00
(lp32
S'city1'
p33
aS'city2'
p34
aS'space_1'
p35
aS'space_2'
p36
aS'space_3'
p37
aS'space_4'
p38
aS'space_5'
p39
aS'space_6'
p40
aS'space_7'
p41
aS'space_8'
p42
aS'space_9'
p43
aS'space_10'
p44
aS'space_11'
p45
atp46
bsS'name'
p47
Nstp48
Rp49
ag15
(g16
(dp50
g18
g19
(g20
(I0
tp51
g22
tp52
Rp53
(I1
(I67
tp54
g29
I00
(lp55
S'2351641'
p56
aS'2351642'
p57
aS'2351643'
p58
aS'2351644'
p59
aS'2351645'
p60
aS'2351646'
p61
aS'2351647'
p62
aS'2351649'
p63
aS'2351650'
p64
aS'2351651'
p65
aS'2351652'
p66
aS'2351653'
p67
aS'2351656'
p68
aS'2351658'
p69
aS'2351661'
p70
aS'2351664'
p71
aS'2351665'
p72
aS'2351668'
p73
aS'2351672'
p74
aS'2351673'
p75
aS'2351674'
p76
aS'2351675'
p77
aS'2351679'
p78
aS'2351680'
p79
aS'2351681'
p80
aS'2351683'
p81
aS'2351684'
p82
aS'2351685'
p83
aS'2351686'
p84
aS'2351688'
p85
aS'2351689'
p86
aS'2351690'
p87
aS'2351691'
p88
aS'2351692'
p89
aS'2351694'
p90
aS'2351695'
p91
aS'2351696'
p92
aS'2351697'
p93
aS'2351700'
p94
aS'2351703'
p95
aS'2351704'
p96
aS'2351707'
p97
aS'2351711'
p98
aS'2351712'
p99
aS'2351713'
p100
aS'2351714'
p101
aS'2351722'
p102
aS'2351723'
p103
aS'2351724'
p104
aS'2351725'
p105
aS'2351726'
p106
aS'2351727'
p107
aS'2351728'
p108
aS'2351730'
p109
aS'2351731'
p110
aS'2351734'
p111
aS'2351736'
p112
aS'2351738'
p113
aS'2351739'
p114
aS'2351741'
p115
aS'2351745'
p116
aS'2351746'
p117
aS'2351748'
p118
aS'2351750'
p119
aS'2351751'
p120
aS'2351752'
p121
aS'2351753'
p122
atp123
bsg47
Nstp124
Rp125
a(lp126
g19
(g20
(I0
tp127
g22
tp128
Rp129
(I1
(I2
I67
tp130
g26
(S'i8'
p131
I0
I1
tp132
Rp133
(I3
S'<'
p134
NNNI-1
I-1
I0
tp135
bI00
S'+\x04\x00\x00\x00\x00\x00\x00+\x04\x00\x00\x00\x00\x00\x00\x8f\x04\x00\x00\x00\x00\x00\x00,\x04\x00\x00\x00\x00\x00\x00.\x04\x00\x00\x00\x00\x00\x00\xed\x04\x00\x00\x00\x00\x00\x00\xed\x04\x00\x00\x00\x00\x00\x00\x8f\x04\x00\x00\x00\x00\x00\x00+\x04\x00\x00\x00\x00\x00\x00.\x04\x00\x00\x00\x00\x00\x00$\x04\x00\x00\x00\x00\x00\x00&\x04\x00\x00\x00\x00\x00\x00"\x04\x00\x00\x00\x00\x00\x00\xe9\x03\x00\x00\x00\x00\x00\x00+\x04\x00\x00\x00\x00\x00\x00@\x05\x00\x00\x00\x00\x00\x00$\x04\x00\x00\x00\x00\x00\x00\x8f\x04\x00\x00\x00\x00\x00\x00$\x04\x00\x00\x00\x00\x00\x00"\x04\x00\x00\x00\x00\x00\x00+\x04\x00\x00\x00\x00\x00\x00\'\x04\x00\x00\x00\x00\x00\x00\xed\x04\x00\x00\x00\x00\x00\x00\xbd\x05\x00\x00\x00\x00\x00\x00+\x04\x00\x00\x00\x00\x00\x00\xed\x04\x00\x00\x00\x00\x00\x00\'\x04\x00\x00\x00\x00\x00\x00+\x04\x00\x00\x00\x00\x00\x00\xee\x04\x00\x00\x00\x00\x00\x00"\x04\x00\x00\x00\x00\x00\x00\xed\x04\x00\x00\x00\x00\x00\x00$\x04\x00\x00\x00\x00\x00\x00\xed\x04\x00\x00\x00\x00\x00\x00.\x04\x00\x00\x00\x00\x00\x00+\x04\x00\x00\x00\x00\x00\x00.\x04\x00\x00\x00\x00\x00\x00.\x04\x00\x00\x00\x00\x00\x00+\x04\x00\x00\x00\x00\x00\x00"\x04\x00\x00\x00\x00\x00\x00\xed\x04\x00\x00\x00\x00\x00\x00,\x04\x00\x00\x00\x00\x00\x00\xe9\x03\x00\x00\x00\x00\x00\x00&\x04\x00\x00\x00\x00\x00\x00"\x04\x00\x00\x00\x00\x00\x00\xee\x04\x00\x00\x00\x00\x00\x00,\x04\x00\x00\x00\x00\x00\x00.\x04\x00\x00\x00\x00\x00\x00+\x04\x00\x00\x00\x00\x00\x00@\x05\x00\x00\x00\x00\x00\x00$\x04\x00\x00\x00\x00\x00\x00+\x04\x00\x00\x00\x00\x00\x00"\x04\x00\x00\x00\x00\x00\x00+\x04\x00\x00\x00\x00\x00\x00\'\x04\x00\x00\x00\x00\x00\x00"\x04\x00\x00\x00\x00\x00\x00"\x04\x00\x00\x00\x00\x00\x00\x8f\x04\x00\x00\x00\x00\x00\x00,\x04\x00\x00\x00\x00\x00\x00\x8f\x04\x00\x00\x00\x00\x00\x00\xe9\x03\x00\x00\x00\x00\x00\x00+\x04\x00\x00\x00\x00\x00\x00\x8f\x04\x00\x00\x00\x00\x00\x00\xed\x04\x00\x00\x00\x00\x00\x00\x8f\x04\x00\x00\x00\x00\x00\x00.\x04\x00\x00\x00\x00\x00\x00.\x04\x00\x00\x00\x00\x00\x00.\x04\x00\x00\x00\x00\x00\x00\x00\x00\x00\x00\x00\x00\x00\x00\x00\x00\x00\x00\x00\x00\x00\x00\x00\x00\x00\x00\x00\x00\x00\x00\x00\x00\x00\x00\x00\x00\x00\x00\x00\x00\x00\x00\x00\x00\x00\x00\x00\x00\x00\x00\x00\x00\x00\x00\x00\x00\x00\x00\x00\x00\x00\x00\x00\x00\x00\x00\x00\x00\x00\x00\x00\x00\x00\x00\x00\x00\x00\x00\x00\x00\x00\x00\x00\x00\x00\x00\x00\x00\x00\x00\x00\x00\x00\x00\x00\x00\x00\x00\x00\x00\x00\x00\x00\x00\x00\x00\x00\x00\x00\x00\x00\x00\x00\x00\x00\x00\x00\x00\x00\x00\x00\x00\x00\x00\x00\x00\x00\x00\x00\x00\x00\x00\x00\x00\x00\x00\x00\x00\x00\x00\x00\x00\x00\x00\x00\x00\x00\x00\x00\x00\x00\x00\x00\x00\x00\x00\x00\x00\x00\x00\x00\x00\x00\x00\x00\x00\x00\x00\x00\x00\x00\x00\x00\x00\x00\x00\x00\x00\x00\x00\x00\x00\x00\x00\x00\x00\x00\x00\x00\x00\x00\x00\x00\x00\x00\x00\x00\x00\x00\x00\x00\x00\x00\x00\x00\x00\x00\x00\x00\x00\x00\x00\x00\x00\x00\x00\x00\x00\x00\x00\x00\x00\x00\x00\x00\x00\x00\x00\x00\x00\x00\x00\x00\x00\x00\x00\x00\x00\x00\x00\x00\x00\x00\x00\x00\x00\x00\x00\x00\x00\x00\x00\x00\x00\x00\x00\x00\x00\x00\x00\x00\x00\x00\x00\x00\x00\x00\x00\x00\x00\x00\x00\x00\x00\x00\x00\x00\x00\x00\x00\x00\x00\x00\x00\x00\x00\x00\x00\x00\x00\x00\x00\x00\x00\x00\x00\x00\x00\x00\x00\x00\x00\x00\x00\x00\x00\x00\x00\x00\x00\x00\x00\x00\x00\x00\x00\x00\x00\x00\x00\x00\x00\x00\x00\x00\x00\x00\x00\x00\x00\x00\x00\x00\x00\x00\x00\x00\x00\x00\x00\x00\x00\x00\x00\x00\x00\x00\x00\x00\x00\x00\x00\x00\x00\x00\x00\x00\x00\x00\x00\x00\x00\x00\x00\x00\x00\x00\x00\x00\x00\x00\x00\x00\x00\x00\x00\x00\x00\x00\x00\x00\x00\x00\x00\x00\x00\x00\x00\x00\x00\x00\x00\x00\x00\x00\x00\x00\x00\x00\x00\x00\x00\x00\x00\x00\x00\x00\x00\x00\x00\x00\x00\x00\x00\x00\x00\x00\x00\x00\x00\x00\x00\x00\x00\x00\x00\x00\x00\x00\x00\x00\x00\x00\x00\x00\x00\x00\x00\x00\x00\x00\x00\x00\x00\x00\x00\x00\x00\x00\x00\x00\x00\x00\x00\x00\x00\x00\x00\x00\x00\x00\x00\x00\x00\x00\x00\x00\x00\x00\x00\x00\x00\x00\x00\x00\x00\x00\x00\x00\x00\x00\x00\x00\x00\x00\x00\x00\x00\x00\x00\x00\x00\x00\x00\x00\x00\x00\x00\x00\x00\x00\x00\x00\x00\x00\x00\x00\x00\x00\x00\x00\x00\x00\x00\x00\x00\x00\x00\x00\x00\x00\x00\x00\x00\x00\x00\x00\x00\x00\x00\x00\x00\x00\x00\x00\x00\x00\x00\x00\x00\x00\x00'
p136
tp137
bag19
(g20
(I0
tp138
g22
tp139
Rp140
(I1
(I11
I67
tp141
g29
I00
(lp142
S'917012298841'
p143
aS'17066124310'
p144
aS'917012240291'
p145
aS'917012298881'
p146
aS'17066099470'
p147
aS'17066181850'
p148
aS'17066309860'
p149
aS'917012205321'
p150
aS'17066006670'
p151
aS'17066096580'
p152
aS'17066076760'
p153
aS'17066006660'
p154
aS'17066092530'
p155
aS'917012227461'
p156
aS'17066114880'
p157
aS'17066235210'
p158
aS'917012229121'
p159
aS'917012235441'
p160
aS'17066138580'
p161
aS'917012234631'
p162
aS'917012205331'
p163
aS'17066120860'
p164
aS'917012229081'
p165
aS'17066311230'
p166
aS'17066124900'
p167
aS'917012298891'
p168
aS'17066175660'
p169
aS'17066162580'
p170
aS'17066312450'
p171
aS'917012202651'
p172
aS'17066323450'
p173
aS'17066181920'
p174
aS'17066191310'
p175
aS'17066013510'
p176
aS'17066244650'
p177
aS'917012262651'
p178
aS'17066264400'
p179
aS'17066103180'
p180
aS'17066112480'
p181
aS'17066026800'
p182
aS'917012261131'
p183
aS'17066014010'
p184
aS'17066312560'
p185
aS'917012229051'
p186
aS'17066111640'
p187
aS'17066181010'
p188
aS'17066206580'
p189
aS'17066079640'
p190
aS'917012298741'
p191
aS'17066312320'
p192
aS'17066294910'
p193
aS'17066011770'
p194
aS'17066321570'
p195
aS'17066075590'
p196
aS'17065998270'
p197
aS'17066182000'
p198
aS'17065976690'
p199
aS'17066288800'
p200
aS'917012256091'
p201
aS'17066148650'
p202
aS'17066310710'
p203
aS'17066010910'
p204
aS'17066125240'
p205
aS'17066191110'
p206
aS'17066181660'
p207
aS'17066123370'
p208
aS'917012227901'
p209
aS'917012298811'
p210
aS'17066124300'
p211
aS'917012240191'
p212
aS'917012298851'
p213
aS'17066091680'
p214
aS'17066133010'
p215
aS'17066245870'
p216
aS'17066011800'
p217
aS'17065987730'
p218
aS'17066093650'
p219
aS'17066059780'
p220
aS'17065999850'
p221
aS'17066062430'
p222
aS'917012214541'
p223
aS'17066112470'
p224
aS'17066234540'
p225
aS'17066109520'
p226
aS'917012227741'
p227
aS'17066138570'
p228
aS'17066141480'
p229
aS'17066027980'
p230
aS'17066120800'
p231
aS'17066123930'
p232
aS'17066311190'
p233
aS'17066099810'
p234
aS'917012298871'
p235
aS'17066175650'
p236
aS'17066124910'
p237
aS'17066312400'
p238
aS'17066011970'
p239
aS'17066323200'
p240
aS'17066181870'
p241
aS'17066182800'
p242
aS'17066005230'
p243
aS'17066244640'
p244
aS'17066245060'
p245
aS'17066262500'
p246
aS'17066103170'
p247
aS'17066043300'
p248
aS'17066017940'
p249
aS'17066169010'
p250
aS'17066013810'
p251
aS'17066310670'
p252
aS'17066022060'
p253
aS'17066097520'
p254
aS'17066141970'
p255
aS'17066191270'
p256
aS'17066078420'
p257
aS'917012298721'
p258
aS'17066310060'
p259
aS'17066294820'
p260
aS'17066011760'
p261
aS'17066309130'
p262
aS'17066075580'
p263
aS'17065998230'
p264
aS'17066181960'
p265
aS'17065972120'
p266
aS'17066288790'
p267
aS'17066142500'
p268
aS'17066128540'
p269
aS'17066310590'
p270
aS'17066010490'
p271
aS'17066125200'
p272
aS'17066180440'
p273
aS'17066169400'
p274
aS'17066093110'
p275
aS'17066119340'
p276
aS'917012295241'
p277
aS'17066072660'
p278
aS'917012240181'
p279
aS'917012298801'
p280
aS'17066091490'
p281
aS'17066130300'
p282
aS'17066245850'
p283
aS'17066011790'
p284
aS'17065983820'
p285
aS'17066093640'
p286
aS'17066054950'
p287
aS'17065987990'
p288
aS'17066015860'
p289
aS'17066201470'
p290
aS'17066069790'
p291
aS'17066193920'
p292
aS'17066091760'
p293
aS'17066095420'
p294
aS'17066112850'
p295
aS'17066141470'
p296
aS'17066027750'
p297
aS'17066120780'
p298
aS'17066084550'
p299
aS'17066311140'
p300
aS'17066099800'
p301
aS'917012298861'
p302
aS'17066170620'
p303
aS'17066124720'
p304
aS'17066312360'
p305
aS'17066006870'
p306
aS'17066322800'
p307
aS'17066181860'
p308
aS'17066182790'
p309
aI-1
aS'17066244630'
p310
aS'17066234530'
p311
aS'17066262490'
p312
aS'17066103160'
p313
aS'17066043260'
p314
aS'17066016080'
p315
aS'17066168980'
p316
aS'17066011480'
p317
aS'17066310630'
p318
aS'17066022020'
p319
aS'17066093120'
p320
aS'17066141930'
p321
aS'17066191260'
p322
aS'17066073940'
p323
aS'17066291350'
p324
aS'17066309910'
p325
aS'17066246030'
p326
aS'17066011750'
p327
aS'17066264410'
p328
aS'17066075500'
p329
aS'17065964820'
p330
aS'17066180100'
p331
aS'17065972000'
p332
aS'17066288780'
p333
aS'17066142490'
p334
aS'17066125170'
p335
aS'17066310400'
p336
aS'17066010230'
p337
aS'17066124930'
p338
aS'17066180430'
p339
aS'17066169390'
p340
aS'17066078980'
p341
aS'17066119330'
p342
aS'17066245570'
p343
aS'17066070700'
p344
aS'17066154670'
p345
aS'917012298791'
p346
aS'17066022640'
p347
aS'17066129020'
p348
aS'17066243930'
p349
aS'17066011780'
p350
aS'17065977440'
p351
aS'17066093630'
p352
aS'17066054940'
p353
aS'17065964830'
p354
aS'17066015600'
p355
aS'17066170670'
p356
aS'17066069770'
p357
aS'17066192020'
p358
aS'17066061250'
p359
aS'17066069390'
p360
aS'17066111700'
p361
aS'17066141420'
p362
aS'17066027740'
p363
aS'17066120700'
p364
aS'17066069860'
p365
aS'17066244510'
p366
aS'17066099770'
p367
aS'917012298831'
p368
aS'17066163800'
p369
aS'17066124680'
p370
aS'17066310100'
p371
aS'17066006860'
p372
aS'17066322770'
p373
aS'17066163840'
p374
aS'17066080630'
p375
aI-1
aS'17066244610'
p376
aS'17066197960'
p377
aS'17066250610'
p378
aS'17066103150'
p379
aS'17066043250'
p380
aS'17066016070'
p381
aS'17066168970'
p382
aS'17066011470'
p383
aS'17066310550'
p384
aS'17066020520'
p385
aS'17066088480'
p386
aS'17066122740'
p387
aS'17066191250'
p388
aS'17066073200'
p389
aS'17066229150'
p390
aS'17066309800'
p391
aS'17066246020'
p392
aS'17066011740'
p393
aS'17066264390'
p394
aS'17066062400'
p395
aS'17065964700'
p396
aS'17066128640'
p397
aS'17065971990'
p398
aS'17066288770'
p399
aS'17066142480'
p400
aS'17066124870'
p401
aS'17066310250'
p402
aS'17065995990'
p403
aS'17066111240'
p404
aS'17066138830'
p405
aS'17066169030'
p406
aS'17066028270'
p407
aS'17066110320'
p408
aS'17066245530'
p409
aS'17066070170'
p410
aS'17066154660'
p411
aS'17066311030'
p412
aS'17066022620'
p413
aS'17066125820'
p414
aS'17066243910'
p415
aS'17066011710'
p416
aS'17065977430'
p417
aS'17066069350'
p418
aS'17066053460'
p419
aS'17065964710'
p420
aS'17066015590'
p421
aS'17066170220'
p422
aS'17066069760'
p423
aS'17066187600'
p424
aS'17066008550'
p425
aS'17066069370'
p426
aS'17066111650'
p427
aS'17066141410'
p428
aS'17066027730'
p429
aS'17066120690'
p430
aS'17066046680'
p431
aS'17066244500'
p432
aS'17066099760'
p433
aS'917012298821'
p434
aS'17066162730'
p435
aS'17066124390'
p436
aS'17066310020'
p437
aS'17065999730'
p438
aS'17066321580'
p439
aS'17066162670'
p440
aS'17066074740'
p441
aI-1
aS'17066232070'
p442
aS'17066181980'
p443
aS'17066244780'
p444
aS'17066102340'
p445
aS'17066015790'
p446
aS'17066014380'
p447
aS'17066168960'
p448
aS'17066011460'
p449
aS'17066310510'
p450
aS'17066013410'
p451
aS'17066088420'
p452
aS'17066120770'
p453
aS'17066191240'
p454
aS'17066063590'
p455
aS'17066201210'
p456
aS'17066245860'
p457
aS'17066243560'
p458
aS'17066011720'
p459
aS'17066264380'
p460
aS'17066062390'
p461
aS'17065964680'
p462
aS'17066128630'
p463
aS'17065971770'
p464
aS'17066288760'
p465
aS'17066142470'
p466
aS'17066124520'
p467
aS'17066310200'
p468
aS'17065995410'
p469
aS'17066110380'
p470
aS'17066138820'
p471
aS'17066169020'
p472
aS'17066020350'
p473
aS'17066107850'
p474
aS'17066245520'
p475
aS'17066060800'
p476
aS'17066154650'
p477
aS'17066311000'
p478
aS'17066022540'
p479
aS'17066112350'
p480
aS'17066243620'
p481
aS'17066011680'
p482
aS'17065971850'
p483
aS'17066069330'
p484
aS'17066006130'
p485
aS'17065964690'
p486
aS'17066002100'
p487
aS'17066090010'
p488
aS'17066069710'
p489
aS'17066154610'
p490
aS'17066008420'
p491
aS'17066069300'
p492
aS'17066088490'
p493
aS'17066079810'
p494
aS'17065970610'
p495
aS'17066116000'
p496
aS'17066046670'
p497
aS'17066244490'
p498
aS'17066099750'
p499
aS'917012298781'
p500
aS'17066154680'
p501
aS'17066115950'
p502
aS'17066309990'
p503
aS'17065972790'
p504
aS'17066321560'
p505
aS'17066162660'
p506
aS'17066074610'
p507
aI-1
aS'17066232060'
p508
aS'17066181790'
p509
aS'17066244760'
p510
aS'17066101190'
p511
aS'17066014790'
p512
aS'17066011270'
p513
aS'17066154230'
p514
aS'17066011450'
p515
aS'17066310470'
p516
aS'17066012340'
p517
aS'17066076750'
p518
aS'17066119520'
p519
aS'17066191230'
p520
aS'17066063550'
p521
aS'17066200950'
p522
aS'17066245840'
p523
aS'17066243290'
p524
aS'17066011700'
p525
aS'17066264370'
p526
aS'17066061930'
p527
aS'17065964660'
p528
aS'17066128380'
p529
aS'17065971610'
p530
aS'17066288750'
p531
aS'17066142460'
p532
aS'17066110180'
p533
aS'17066265400'
p534
aS'17065991880'
p535
aS'17066110370'
p536
aS'17066138800'
p537
aS'17066142160'
p538
aS'17066020220'
p539
aS'17066107560'
p540
aS'17066244530'
p541
aS'17066059450'
p542
aS'17066135230'
p543
aS'17066235120'
p544
aS'17066022480'
p545
aS'17066101200'
p546
aS'17066217460'
p547
aS'17065995980'
p548
aS'17065971760'
p549
aS'17066069310'
p550
aS'17065999830'
p551
aS'17065964670'
p552
aS'17065999790'
p553
aS'17066060760'
p554
aS'17066069700'
p555
aS'17066139560'
p556
aS'17066008410'
p557
aS'17066015150'
p558
aS'17066088210'
p559
aS'17066079710'
p560
aS'17065970560'
p561
aS'17066107650'
p562
aS'17066022740'
p563
aS'17066244470'
p564
aS'17066099740'
p565
aS'917012298771'
p566
aS'17066140790'
p567
aS'17066112340'
p568
aS'17066309950'
p569
aS'17065972780'
p570
aS'17066321550'
p571
aS'17066159030'
p572
aS'17066072780'
p573
aI-1
aS'17066232050'
p574
aS'17066169000'
p575
aS'17066244740'
p576
aS'17066070020'
p577
aS'17066014780'
p578
aS'17066011260'
p579
aS'17066061910'
p580
aS'17066011440'
p581
aS'17066310430'
p582
aS'17066007670'
p583
aS'17066075300'
p584
aS'17066089470'
p585
aS'17066191220'
p586
aS'17066063080'
p587
aS'17066192690'
p588
aS'17066243940'
p589
aS'17066181930'
p590
aS'17066011690'
p591
aS'17066264350'
p592
aS'17066061820'
p593
aS'17065964650'
p594
aS'17066127380'
p595
aS'17065971600'
p596
aS'17066288740'
p597
aS'17066114860'
p598
aS'17066110160'
p599
aS'17066265390'
p600
aS'17065976680'
p601
aS'17066110170'
p602
aS'17066138790'
p603
aS'17066142060'
p604
aS'17066014440'
p605
aS'17066107550'
p606
aS'17066244480'
p607
aS'17066059440'
p608
aS'17066124890'
p609
aS'17066203520'
p610
aS'17066018030'
p611
aS'17066070010'
p612
aS'17066214880'
p613
aS'17065964640'
p614
aS'17065970960'
p615
aS'17066069290'
p616
aS'17065999820'
p617
aS'17065961710'
p618
aS'17065999780'
p619
aS'17066022890'
p620
aS'17066069690'
p621
aS'17066139550'
p622
aS'17065989810'
p623
aS'17065976730'
p624
aS'17066076720'
p625
aS'17066077720'
p626
aS'17065970410'
p627
aS'17066064730'
p628
aS'17066021840'
p629
aS'17066232030'
p630
aS'17066046930'
p631
aS'917012298751'
p632
aS'17066140780'
p633
aS'17066112330'
p634
aS'17066243610'
p635
aS'17065971590'
p636
aS'17066321540'
p637
aS'17066155190'
p638
aS'17066071780'
p639
aI-1
aS'17066232020'
p640
aS'17066140310'
p641
aS'17066234890'
p642
aS'17066069990'
p643
aS'17066014770'
p644
aS'17065971780'
p645
aS'17066061870'
p646
aS'17066011430'
p647
aS'17066310360'
p648
aS'17066002830'
p649
aS'17066063600'
p650
aS'17066089460'
p651
aS'17066154640'
p652
aS'17066059430'
p653
aS'17066192680'
p654
aS'17066243920'
p655
aS'17066181900'
p656
aS'17065961950'
p657
aS'17066264340'
p658
aS'17066061700'
p659
aS'17065961830'
p660
aS'17066127260'
p661
aS'17065968770'
p662
aS'17066288730'
p663
aS'17066112460'
p664
aS'17066108870'
p665
aS'17066265370'
p666
aS'17065976670'
p667
aS'17066108880'
p668
aS'17066128370'
p669
aS'17066141900'
p670
aS'17066014430'
p671
aS'17066075130'
p672
aS'17066228520'
p673
aS'17066051650'
p674
aI-1
aI-1
aS'17066017950'
p675
aS'17066070000'
p676
aS'17066214870'
p677
aI-1
aS'17065970490'
p678
aS'17066069270'
p679
aS'17065999810'
p680
aI-1
aS'17065977960'
p681
aS'17066015930'
p682
aS'17066043200'
p683
aS'17066138870'
p684
aI-1
aI-1
aS'17066076700'
p685
aS'17066073790'
p686
aI-1
aS'17066064070'
p687
aI-1
aS'17066232010'
p688
aI-1
aI-1
aS'17066138050'
p689
aS'17066111430'
p690
aS'17066243600'
p691
aI-1
aS'17066244920'
p692
aS'17066137000'
p693
aS'17066054930'
p694
aI-1
aS'17066232000'
p695
aS'17066128470'
p696
aS'17066234670'
p697
aS'17066063580'
p698
aS'17066014760'
p699
aS'17065971670'
p700
aI-1
aI-1
aS'17066310300'
p701
aS'17065983900'
p702
aI-1
aS'17066089430'
p703
aI-1
aS'17066059420'
p704
aS'17066191510'
p705
aS'17066243640'
p706
aS'17066181880'
p707
aI-1
aS'17066264330'
p708
aS'17066061470'
p709
aI-1
aS'17066065160'
p710
aS'17065963000'
p711
aS'17066251030'
p712
aS'17066053210'
p713
aS'17066108400'
p714
aS'17066265360'
p715
aI-1
aI-1
aS'17066128360'
p716
aS'17066141770'
p717
aI-1
aS'17066075120'
p718
aI-1
aS'17066051640'
p719
aI-1
aI-1
aS'17066014870'
p720
aI-1
aS'17066201160'
p721
aI-1
aS'17065970480'
p722
aI-1
aS'17065964190'
p723
aI-1
aI-1
aI-1
aI-1
aS'17066136430'
p724
aI-1
aI-1
aS'17066076570'
p725
aS'17066060810'
p726
aI-1
aS'17066053930'
p727
aI-1
aS'17066231980'
p728
aI-1
aI-1
aS'17066126680'
p729
aI-1
aS'17066243590'
p730
aI-1
aS'17066232600'
p731
aI-1
aS'17066054920'
p732
aI-1
aS'17066231990'
p733
aI-1
aS'17066232610'
p734
aI-1
aI-1
aS'17065970420'
p735
aI-1
aI-1
aS'17066310150'
p736
aS'17065970230'
p737
aI-1
aS'17066089340'
p738
aI-1
aS'17066059280'
p739
aI-1
aS'17066243630'
p740
aS'17066156080'
p741
aI-1
aS'17066250900'
p742
aS'17066045810'
p743
aI-1
aI-1
aI-1
aS'17066250250'
p744
aI-1
aS'17066108320'
p745
aS'17066265330'
p746
aI-1
aI-1
aS'17066128350'
p747
aS'17066141460'
p748
aI-1
aS'17066064720'
p749
aI-1
aI-1
aI-1
aI-1
aI-1
aI-1
aI-1
aI-1
aI-1
aI-1
aI-1
aI-1
aI-1
aI-1
aI-1
aI-1
aI-1
aI-1
aI-1
aI-1
aI-1
aI-1
aI-1
aI-1
aI-1
aI-1
aI-1
aI-1
aI-1
aI-1
aI-1
aI-1
aI-1
aI-1
aI-1
aI-1
aI-1
aI-1
aI-1
aI-1
aI-1
aI-1
aI-1
aI-1
aI-1
aI-1
aI-1
aI-1
aI-1
aI-1
aI-1
aI-1
aI-1
aI-1
aI-1
aI-1
aI-1
aI-1
aI-1
aI-1
aS'17066265320'
p750
aI-1
aI-1
aI-1
aI-1
aI-1
aI-1
atp751
ba(lp752
g15
(g16
(dp753
g18
g19
(g20
(I0
tp754
g22
tp755
Rp756
(I1
(I2
tp757
g29
I00
(lp758
g33
ag34
atp759
bsg47
Nstp760
Rp761
ag15
(g16
(dp762
g18
g19
(g20
(I0
tp763
g22
tp764
Rp765
(I1
(I11
tp766
g29
I00
(lp767
g35
ag36
ag37
ag38
ag39
ag40
ag41
ag42
ag43
ag44
ag45
atp768
bsg47
Nstp769
Rp770
a(dp771
S'0.14.1'
p772
(dp773
S'axes'
p774
g14
sS'blocks'
p775
(lp776
(dp777
S'mgr_locs'
p778
c__builtin__
slice
p779
(I0
I2
I1
tp780
Rp781
sS'values'
p782
g129
sa(dp783
g778
g779
(I2
I13
I1
tp784
Rp785
sg782
g140
sasstp786
bsb.