ccopy_reg
_reconstructor
p1
(cpandas.core.frame
DataFrame
p2
c__builtin__
object
p3
NtRp4
(dp5
S'_metadata'
p6
(lp7
sS'_typ'
p8
S'dataframe'
p9
sS'_data'
p10
g1
(cpandas.core.internals
BlockManager
p11
g3
NtRp12
((lp13
cpandas.core.indexes.base
_new_Index
p14
(cpandas.core.indexes.base
Index
p15
(dp16
S'data'
p17
cnumpy.core.multiarray
_reconstruct
p18
(cnumpy
ndarray
p19
(I0
tS'b'
tRp20
(I1
(I6
tcnumpy
dtype
p21
(S'O8'
I0
I1
tRp22
(I3
S'|'
NNNI-1
I-1
I63
tbI00
(lp23
S'space_1'
p24
aS'space_2'
p25
aS'space_3'
p26
aS'space_4'
p27
aS'space_5'
p28
aS'space_6'
p29
atbsS'name'
p30
NstRp31
ag14
(g15
(dp32
g17
g18
(g19
(I0
tS'b'
tRp33
(I1
(I5
tg22
I00
(lp34
S'+'
aS'4315041'
p35
aS'4315044'
p36
aS'4315051'
p37
aS'+'
atbsg30
NstRp38
a(lp39
g18
(g19
(I0
tS'b'
tRp40
(I1
(I6
I5
tg22
I01
(lp41
S'*'
aS'121724900'
p42
aS'121753681'
p43
aS'121904200'
p44
aS'Solution: 0'
p45
aS'*'
aS'121739212'
p46
aS'121707434'
p47
aS'121937520'
p48
aS'*'
aS'*'
aS'121802139'
p49
aS'121763256'
p50
aS'121939944'
p51
aS'*'
aS'*'
aS'121810925'
p52
aS'121794305'
p53
aS'121932554'
p54
aS'*'
aS'*'
aS'121855884'
p55
aS'121772860'
p56
aS' '
aS'*'
aS'*'
aS'121928673'
p57
aS'121772863'
p58
aS' '
aS'*'
atba(lp59
g14
(g15
(dp60
g17
g18
(g19
(I0
tS'b'
tRp61
(I1
(I6
tg22
I00
(lp62
g24
ag25
ag26
ag27
ag28
ag29
atbsg30
NstRp63
a(dp64
S'0.14.1'
p65
(dp66
S'axes'
p67
g13
sS'blocks'
p68
(lp69
(dp70
S'mgr_locs'
p71
c__builtin__
slice
p72
(I0
I6
I1
tRp73
sS'values'
p74
g40
sasstbsb.