ccopy_reg
_reconstructor
p1
(cpandas.core.frame
DataFrame
p2
c__builtin__
object
p3
NtRp4
(dp5
S'_metadata'
p6
(lp7
sS'_typ'
p8
S'dataframe'
p9
sS'_data'
p10
g1
(cpandas.core.internals
BlockManager
p11
g3
NtRp12
((lp13
cpandas.core.indexes.base
_new_Index
p14
(cpandas.core.indexes.base
Index
p15
(dp16
S'data'
p17
cnumpy.core.multiarray
_reconstruct
p18
(cnumpy
ndarray
p19
(I0
tS'b'
tRp20
(I1
(I12
tcnumpy
dtype
p21
(S'O8'
I0
I1
tRp22
(I3
S'|'
NNNI-1
I-1
I63
tbI00
(lp23
S'space_1'
p24
aS'space_2'
p25
aS'space_3'
p26
aS'space_4'
p27
aS'space_5'
p28
aS'space_6'
p29
aS'space_7'
p30
aS'space_8'
p31
aS'space_9'
p32
aS'space_10'
p33
aS'space_11'
p34
aS'space_12'
p35
atbsS'name'
p36
NstRp37
ag14
(g15
(dp38
g17
g18
(g19
(I0
tS'b'
tRp39
(I1
(I31
tg22
I00
(lp40
S'+'
aS'4273876'
p41
aS'4273874'
p42
aS'+'
ag41
ag42
aS'+'
ag41
ag42
aS'+'
ag41
ag42
aS'+'
ag41
ag42
aS'+'
ag41
ag42
aS'+'
ag41
ag42
aS'+'
ag41
ag42
aS'+'
ag41
ag42
aS'+'
ag41
ag42
aS'+'
atbsg36
NstRp43
a(lp44
g18
(g19
(I0
tS'b'
tRp45
(I1
(I12
I31
tg22
I01
(lp46
S'*'
aS'121551480'
p47
aS' '
aS'Solution: 0'
p48
aS'121556308'
p49
aS' '
aS'Solution: 1'
p50
aS'121556308'
p51
aS' '
aS'Solution: 2'
p52
aS'121538845'
p53
aS' '
aS'Solution: 3'
p54
aS'121538845'
p55
aS' '
aS'Solution: 4'
p56
aS'121538845'
p57
aS' '
aS'Solution: 5'
p58
aS'121551480'
p59
aS' '
aS'Solution: 6'
p60
aS'121551480'
p61
aS' '
aS'Solution: 7'
p62
aS'121551480'
p63
aS' '
aS'Solution: 8'
p64
aS'121556308'
p65
aS' '
aS'Solution: 9'
p66
aS'*'
aS'121559660'
p67
aS' '
aS'*'
aS'121538845'
p68
aS' '
aS'*'
aS'121538845'
p69
aS' '
aS'*'
aS'121556308'
p70
aS' '
aS'*'
aS'121556308'
p71
aS' '
aS'*'
aS'121556308'
p72
aS' '
aS'*'
aS'121559660'
p73
aS' '
aS'*'
aS'121559660'
p74
aS' '
aS'*'
aS'121559660'
p75
aS' '
aS'*'
aS'121538845'
p76
aS' '
aS'*'
aS'*'
aS'121538845'
p77
aS' '
aS'*'
aS'121551480'
p78
aS' '
aS'*'
aS'121551480'
p79
aS' '
aS'*'
aS'121551480'
p80
aS' '
aS'*'
aS'121551480'
p81
aS' '
aS'*'
aS'121551480'
p82
aS' '
aS'*'
aS'121538845'
p83
aS' '
aS'*'
aS'121556308'
p84
aS' '
aS'*'
aS'121538845'
p85
aS' '
aS'*'
aS'121551480'
p86
aS' '
aS'*'
aS'*'
aS'121556308'
p87
aS' '
aS'*'
aS'121559660'
p88
aS' '
aS'*'
aS'121564778'
p89
aS' '
aS'*'
aS'121559660'
p90
aS' '
aS'*'
aS'121564778'
p91
aS' '
aS'*'
aS'121559660'
p92
aS' '
aS'*'
aS'121556308'
p93
aS' '
aS'*'
aS'121538845'
p94
aS' '
aS'*'
aS'121556308'
p95
aS' '
aS'*'
aS'121559660'
p96
aS' '
aS'*'
aS'*'
aS'121564778'
p97
aS' '
aS'*'
aS'121564778'
p98
aS' '
aS'*'
aS'121559660'
p99
aS' '
aS'*'
aS'121564780'
p100
aS' '
aS'*'
aS'121564780'
p101
aS' '
aS'*'
aS'121564780'
p102
aS' '
aS'*'
aS'121564780'
p103
aS' '
aS'*'
aS'121564778'
p104
aS' '
aS'*'
aS'121564778'
p105
aS' '
aS'*'
aS'121564778'
p106
aS' '
aS'*'
aS'*'
aS'121564780'
p107
aS' '
aS'*'
aS'121564780'
p108
aS' '
aS'*'
aS'121564780'
p109
aS' '
aS'*'
aS'121564778'
p110
aS' '
aS'*'
aS'121559660'
p111
aS' '
aS'*'
aS'121564778'
p112
aS' '
aS'*'
aS'121564778'
p113
aS' '
aS'*'
aS'121564780'
p114
aS' '
aS'*'
aS'121564780'
p115
aS' '
aS'*'
aS'121564780'
p116
aS' '
aS'*'
aS'*'
aS'121564759'
p117
aS' '
aS'*'
aS'121564769'
p118
aS' '
aS'*'
aS'121564773'
p119
aS' '
aS'*'
aS'121564774'
p120
aS' '
aS'*'
aS'121564774'
p121
aS' '
aS'*'
aS'121564763'
p122
aS' '
aS'*'
aS'121564774'
p123
aS' '
aS'*'
aS'121564761'
p124
aS' '
aS'*'
aS'121564767'
p125
aS' '
aS'*'
aS'121564771'
p126
aS' '
aS'*'
aS'*'
aS'121564773'
p127
aS' '
aS'*'
aS'121564774'
p128
aS' '
aS'*'
aS'121564761'
p129
aS' '
aS'*'
aS'121564768'
p130
aS' '
aS'*'
aS'121564761'
p131
aS' '
aS'*'
aS'121564768'
p132
aS' '
aS'*'
aS'121564773'
p133
aS' '
aS'*'
aS'121564759'
p134
aS' '
aS'*'
aS'121564774'
p135
aS' '
aS'*'
aS'121543022'
p136
aS' '
aS'*'
aS'*'
aS'121564767'
p137
aS' '
aS'*'
aS'121564768'
p138
aS' '
aS'*'
aS'121564759'
p139
aS' '
aS'*'
aS'121564767'
p140
aS' '
aS'*'
aS'121564759'
p141
aS' '
aS'*'
aS'121564761'
p142
aS' '
aS'*'
aS'121564771'
p143
aS' '
aS'*'
aS'121564767'
p144
aS' '
aS'*'
aS'121564773'
p145
aS' '
aS'*'
aS'121564759'
p146
aS' '
aS'*'
aS'*'
aS'121564771'
p147
aS' '
aS'*'
aS'121564763'
p148
aS' '
aS'*'
aS'121564769'
p149
aS' '
aS'*'
aS'121564763'
p150
aS' '
aS'*'
aS'121564773'
p151
aS' '
aS'*'
aS'121564759'
p152
aS' '
aS'*'
aS'121564768'
p153
aS' '
aS'*'
aS'121564773'
p154
aS' '
aS'*'
aS'121564769'
p155
aS' '
aS'*'
aS'121564774'
p156
aS' '
aS'*'
aS'*'
aS'121564769'
p157
aS' '
aS'*'
aS'121564761'
p158
aS' '
aS'*'
aS'121564767'
p159
aS' '
aS'*'
aS'121564761'
p160
aS' '
aS'*'
aS'121564771'
p161
aS' '
aS'*'
aS'121564771'
p162
aS' '
aS'*'
aS'121564767'
p163
aS' '
aS'*'
aS'121564763'
p164
aS' '
aS'*'
aS'121543022'
p165
aS' '
aS'*'
aS'121564763'
p166
aS' '
aS'*'
aS'*'
aS'121564763'
p167
aS' '
aS'*'
aS'121564771'
p168
aS' '
aS'*'
aS'121564771'
p169
aS' '
aS'*'
aS'121564771'
p170
aS' '
aS'*'
aS'121564769'
p171
aS' '
aS'*'
aS'121564769'
p172
aS' '
aS'*'
aS'121564763'
p173
aS' '
aS'*'
aS'121564768'
p174
aS' '
aS'*'
aS'121564771'
p175
aS' '
aS'*'
aS'121564767'
p176
aS' '
aS'*'
atba(lp177
g14
(g15
(dp178
g17
g18
(g19
(I0
tS'b'
tRp179
(I1
(I12
tg22
I00
(lp180
g24
ag25
ag26
ag27
ag28
ag29
ag30
ag31
ag32
ag33
ag34
ag35
atbsg36
NstRp181
a(dp182
S'0.14.1'
p183
(dp184
S'axes'
p185
g13
sS'blocks'
p186
(lp187
(dp188
S'mgr_locs'
p189
c__builtin__
slice
p190
(I0
I12
I1
tRp191
sS'values'
p192
g45
sasstbsb.