ccopy_reg
_reconstructor
p1
(cpandas.core.frame
DataFrame
p2
c__builtin__
object
p3
NtRp4
(dp5
S'_metadata'
p6
(lp7
sS'_typ'
p8
S'dataframe'
p9
sS'_data'
p10
g1
(cpandas.core.internals
BlockManager
p11
g3
NtRp12
((lp13
cpandas.core.indexes.base
_new_Index
p14
(cpandas.core.indexes.base
Index
p15
(dp16
S'data'
p17
cnumpy.core.multiarray
_reconstruct
p18
(cnumpy
ndarray
p19
(I0
tS'b'
tRp20
(I1
(L8L
tcnumpy
dtype
p21
(S'O8'
I0
I1
tRp22
(I3
S'|'
NNNI-1
I-1
I63
tbI00
(lp23
S'space_1'
p24
aS'space_2'
p25
aS'space_3'
p26
aS'space_4'
p27
aS'space_5'
p28
aS'space_6'
p29
aS'space_7'
p30
aS'space_8'
p31
atbsS'name'
p32
NstRp33
ag14
(g15
(dp34
g17
g18
(g19
(I0
tS'b'
tRp35
(I1
(L3L
tg22
I00
(lp36
S'+'
aS'170341'
p37
aS'+'
atbsg32
NstRp38
a(lp39
g18
(g19
(I0
tS'b'
tRp40
(I1
(L8L
L3L
tg22
I01
(lp41
S'*'
aS'77677828'
p42
aS'Solution: 0'
p43
aS'*'
aS'77677759'
p44
aS'*'
aS'*'
aS'77677772'
p45
aS'*'
aS'*'
aS'77677804'
p46
aS'*'
aS'*'
aS'77677816'
p47
aS'*'
aS'*'
aS'77677809'
p48
aS'*'
aS'*'
aS'77677788'
p49
aS'*'
aS'*'
aS'77677784'
p50
aS'*'
atba(lp51
g14
(g15
(dp52
g17
g18
(g19
(I0
tS'b'
tRp53
(I1
(L8L
tg22
I00
(lp54
g24
ag25
ag26
ag27
ag28
ag29
ag30
ag31
atbsg32
NstRp55
a(dp56
S'0.14.1'
p57
(dp58
S'axes'
p59
g13
sS'blocks'
p60
(lp61
(dp62
S'mgr_locs'
p63
c__builtin__
slice
p64
(I0
I8
I1
tRp65
sS'values'
p66
g40
sasstbsb.